target datalayout = "e-m:e-p270:32:32-p271:32:32-p272:64:64-i64:64-i128:128-f80:128-n8:16:32:64-S128"
target triple = "x86_64-pc-linux-gnu"

%"class.std::vector" = type { %"struct.std::_Vector_base" }
%"struct.std::_Vector_base" = type { %"struct.std::_Vector_base<Variable *, std::allocator<Variable *>>::_Vector_impl" }
%"struct.std::_Vector_base<Variable *, std::allocator<Variable *>>::_Vector_impl" = type { %"struct.std::_Vector_base<Variable *, std::allocator<Variable *>>::_Vector_impl_data" }
%"struct.std::_Vector_base<Variable *, std::allocator<Variable *>>::_Vector_impl_data" = type { ptr, ptr, ptr }
%"class.std::__cxx11::basic_string" = type { %"struct.std::__cxx11::basic_string<char>::_Alloc_hider", i64, %union.anon }
%"struct.std::__cxx11::basic_string<char>::_Alloc_hider" = type { ptr }
%union.anon = type { i64, [8 x i8] }
%class.Variable = type { ptr, %"class.std::vector", %"class.std::__cxx11::basic_string", ptr, ptr, i8, i8, i8, i8, i8, i8, ptr, i8, %class.CVQualifiers }
%class.CVQualifiers = type { ptr, i8, i8, %"class.std::vector.26", %"class.std::vector.26" }
%"class.std::vector.26" = type { %"struct.std::_Bvector_base" }
%"struct.std::_Bvector_base" = type { %"struct.std::_Bvector_base<std::allocator<bool>>::_Bvector_impl" }
%"struct.std::_Bvector_base<std::allocator<bool>>::_Bvector_impl" = type { %"struct.std::_Bvector_base<std::allocator<bool>>::_Bvector_impl_data" }
%"struct.std::_Bvector_base<std::allocator<bool>>::_Bvector_impl_data" = type { %"struct.std::_Bit_iterator", %"struct.std::_Bit_iterator", ptr }
%"struct.std::_Bit_iterator" = type { %"struct.std::_Bit_iterator_base.base", [4 x i8] }
%"struct.std::_Bit_iterator_base.base" = type <{ ptr, i32 }>

@_ZN10Bookkeeper14volatile_availE = external global i32, align 4

; Function Attrs: mustprogress nounwind uwtable
define linkonce_odr dso_local noundef nonnull align 8 dereferenceable(8) ptr @_ZNKSt6vectorIP8VariableSaIS1_EEixEm(ptr noundef nonnull align 8 dereferenceable(24) %0, i64 noundef %1) #4 comdat align 2 {
  %3 = alloca ptr, align 8
  %4 = alloca i64, align 8
  store ptr %0, ptr %3, align 8
  store i64 %1, ptr %4, align 8
  %5 = load ptr, ptr %3, align 8
  %6 = getelementptr inbounds %"struct.std::_Vector_base", ptr %5, i32 0, i32 0
  %7 = getelementptr inbounds %"struct.std::_Vector_base<Variable *, std::allocator<Variable *>>::_Vector_impl_data", ptr %6, i32 0, i32 0
  %8 = load ptr, ptr %7, align 8
  %9 = load i64, ptr %4, align 8
  %10 = getelementptr inbounds ptr, ptr %8, i64 %9
  ret ptr %10
}

; Function Attrs: mustprogress nounwind uwtable
define linkonce_odr dso_local noundef i64 @_ZNKSt6vectorIP8VariableSaIS1_EE4sizeEv(ptr noundef nonnull align 8 dereferenceable(24) %0) #4 comdat align 2 {
  %2 = alloca ptr, align 8
  store ptr %0, ptr %2, align 8
  %3 = load ptr, ptr %2, align 8
  %4 = getelementptr inbounds %"struct.std::_Vector_base", ptr %3, i32 0, i32 0
  %5 = getelementptr inbounds %"struct.std::_Vector_base<Variable *, std::allocator<Variable *>>::_Vector_impl_data", ptr %4, i32 0, i32 1
  %6 = load ptr, ptr %5, align 8
  %7 = getelementptr inbounds %"struct.std::_Vector_base", ptr %3, i32 0, i32 0
  %8 = getelementptr inbounds %"struct.std::_Vector_base<Variable *, std::allocator<Variable *>>::_Vector_impl_data", ptr %7, i32 0, i32 0
  %9 = load ptr, ptr %8, align 8
  %10 = ptrtoint ptr %6 to i64
  %11 = ptrtoint ptr %9 to i64
  %12 = sub i64 %10, %11
  %13 = sdiv exact i64 %12, 8
  ret i64 %13
}

; Function Attrs: mustprogress uwtable
define dso_local noundef zeroext i1 @_ZN16VariableSelector25has_eligible_volatile_varERKSt6vectorIP8VariableSaIS2_EEPK4TypePK12CVQualifiersN6Effect6AccessERK9CGContext(ptr noundef nonnull align 8 dereferenceable(24) %0, ptr noundef %1, ptr noundef %2, i32 noundef %3, ptr noundef nonnull align 8 dereferenceable(216) %4) #5 align 2 {
  %6 = alloca i1, align 1
  %7 = alloca ptr, align 8
  %8 = alloca ptr, align 8
  %9 = alloca ptr, align 8
  %10 = alloca i32, align 4
  %11 = alloca ptr, align 8
  %12 = alloca i64, align 8
  %13 = alloca ptr, align 8
  %14 = alloca i32, align 4
  store ptr %0, ptr %7, align 8
  store ptr %1, ptr %8, align 8
  store ptr %2, ptr %9, align 8
  store i32 %3, ptr %10, align 4
  store ptr %4, ptr %11, align 8
  store i64 0, ptr %12, align 8
  br label %15

15:                                               ; preds = %63, %5
  %16 = load i64, ptr %12, align 8
  %17 = load ptr, ptr %7, align 8
  %18 = call noundef i64 @_ZNKSt6vectorIP8VariableSaIS1_EE4sizeEv(ptr noundef nonnull align 8 dereferenceable(24) %17) #3
  %19 = icmp ult i64 %16, %18
  br i1 %19, label %20, label %66

20:                                               ; preds = %15
  %21 = load ptr, ptr %7, align 8
  %22 = load i64, ptr %12, align 8
  %23 = call noundef nonnull align 8 dereferenceable(8) ptr @_ZNKSt6vectorIP8VariableSaIS1_EEixEm(ptr noundef nonnull align 8 dereferenceable(24) %21, i64 noundef %22) #3
  %24 = load ptr, ptr %23, align 8
  store ptr %24, ptr %13, align 8
  %25 = load ptr, ptr %8, align 8
  %26 = icmp ne ptr %25, null
  br i1 %26, label %27, label %34

27:                                               ; preds = %20
  %28 = load ptr, ptr %8, align 8
  %29 = load ptr, ptr %13, align 8
  %30 = getelementptr inbounds %class.Variable, ptr %29, i32 0, i32 3
  %31 = load ptr, ptr %30, align 8
  %32 = call noundef zeroext i1 @_ZNK4Type5matchEPKS_10eMatchType(ptr noundef nonnull align 8 dereferenceable(136) %28, ptr noundef %31, i32 noundef 4)
  br i1 %32, label %34, label %33

33:                                               ; preds = %27
  br label %63

34:                                               ; preds = %27, %20
  %35 = load ptr, ptr %9, align 8
  %36 = icmp ne ptr %35, null
  br i1 %36, label %37, label %43

37:                                               ; preds = %34
  %38 = load ptr, ptr %9, align 8
  %39 = load ptr, ptr %13, align 8
  %40 = getelementptr inbounds %class.Variable, ptr %39, i32 0, i32 13
  %41 = call noundef zeroext i1 @_ZNK12CVQualifiers14match_indirectERKS_(ptr noundef nonnull align 8 dereferenceable(96) %38, ptr noundef nonnull align 8 dereferenceable(96) %40)
  br i1 %41, label %43, label %42

42:                                               ; preds = %37
  br label %63

43:                                               ; preds = %37, %34
  %44 = load ptr, ptr %13, align 8
  %45 = getelementptr inbounds %class.Variable, ptr %44, i32 0, i32 3
  %46 = load ptr, ptr %45, align 8
  %47 = call noundef i32 @_ZNK4Type18get_indirect_levelEv(ptr noundef nonnull align 8 dereferenceable(136) %46)
  %48 = load ptr, ptr %8, align 8
  %49 = call noundef i32 @_ZNK4Type18get_indirect_levelEv(ptr noundef nonnull align 8 dereferenceable(136) %48)
  %50 = sub nsw i32 %47, %49
  store i32 %50, ptr %14, align 4
  %51 = load ptr, ptr %13, align 8
  %52 = load i32, ptr %14, align 4
  %53 = load i32, ptr %10, align 4
  %54 = load ptr, ptr %11, align 8
  %55 = call noundef zeroext i1 @_ZN16VariableSelector15is_eligible_varEPK8VariableiN6Effect6AccessERK9CGContext(ptr noundef %51, i32 noundef %52, i32 noundef %53, ptr noundef nonnull align 8 dereferenceable(216) %54)
  br i1 %55, label %56, label %62

56:                                               ; preds = %43
  %57 = load ptr, ptr %13, align 8
  %58 = call noundef zeroext i1 @_ZNK8Variable11is_volatileEv(ptr noundef nonnull align 8 dereferenceable(200) %57)
  br i1 %58, label %59, label %62

59:                                               ; preds = %56
  %60 = load i32, ptr @_ZN10Bookkeeper14volatile_availE, align 4
  %61 = add nsw i32 %60, 1
  store i32 %61, ptr @_ZN10Bookkeeper14volatile_availE, align 4
  store i1 true, ptr %6, align 1
  br label %67

62:                                               ; preds = %56, %43
  br label %63

63:                                               ; preds = %62, %42, %33
  %64 = load i64, ptr %12, align 8
  %65 = add i64 %64, 1
  store i64 %65, ptr %12, align 8
  br label %15, !llvm.loop !9

66:                                               ; preds = %15
  store i1 false, ptr %6, align 1
  br label %67

67:                                               ; preds = %66, %59
  %68 = load i1, ptr %6, align 1
  ret i1 %68
}