; Function Attrs: mustprogress uwtable
define dso_local noundef zeroext i1 @_ZN16VariableSelector25has_eligible_volatile_varERKSt6vectorIP8VariableSaIS2_EEPK4TypePK12CVQualifiersN6Effect6AccessERK9CGContext(ptr nocapture noundef nonnull readonly align 8 dereferenceable(24) %0, ptr noundef %1, ptr noundef %2, i32 noundef %3, ptr noundef nonnull align 8 dereferenceable(216) %4) local_unnamed_addr #4 align 2 {
  %6 = getelementptr inbounds i8, ptr %0, i64 8
  %7 = load ptr, ptr %6, align 8
  %8 = load ptr, ptr %0, align 8
  %.not49 = icmp eq ptr %7, %8
  br i1 %.not49, label %.loopexit, label %.lr.ph

.lr.ph:                                           ; preds = %5
  %.not = icmp eq ptr %1, null
  %.not21 = icmp eq ptr %2, null
  br i1 %.not, label %.lr.ph.split.us, label %.lr.ph.split

.lr.ph.split.us:                                  ; preds = %.lr.ph
  br i1 %.not21, label %.lr.ph.split.us.split.us, label %.lr.ph.split.us.split

.lr.ph.split.us.split.us:                         ; preds = %.lr.ph.split.us, %20
  %9 = phi ptr [ %23, %20 ], [ %8, %.lr.ph.split.us ]
  %.01823.us.us = phi i64 [ %21, %20 ], [ 0, %.lr.ph.split.us ]
  %10 = getelementptr inbounds ptr, ptr %9, i64 %.01823.us.us
  %11 = load ptr, ptr %10, align 8
  %12 = getelementptr inbounds i8, ptr %11, i64 64
  %13 = load ptr, ptr %12, align 8
  %14 = tail call noundef i32 @_ZNK4Type18get_indirect_levelEv(ptr noundef nonnull align 8 dereferenceable(136) %13)
  %15 = tail call noundef i32 @_ZNK4Type18get_indirect_levelEv(ptr noundef nonnull align 8 dereferenceable(136) null)
  %16 = sub nsw i32 %14, %15
  %17 = tail call noundef zeroext i1 @_ZN16VariableSelector15is_eligible_varEPK8VariableiN6Effect6AccessERK9CGContext(ptr noundef %11, i32 noundef %16, i32 noundef %3, ptr noundef nonnull align 8 dereferenceable(216) %4)
  br i1 %17, label %18, label %20

18:                                               ; preds = %.lr.ph.split.us.split.us
  %19 = tail call noundef zeroext i1 @_ZNK8Variable11is_volatileEv(ptr noundef nonnull align 8 dereferenceable(200) %11)
  br i1 %19, label %.split.us, label %20

20:                                               ; preds = %18, %.lr.ph.split.us.split.us
  %21 = add nuw i64 %.01823.us.us, 1
  %22 = load ptr, ptr %6, align 8
  %23 = load ptr, ptr %0, align 8
  %24 = ptrtoint ptr %22 to i64
  %25 = ptrtoint ptr %23 to i64
  %26 = sub i64 %24, %25
  %27 = ashr exact i64 %26, 3
  %28 = icmp ult i64 %21, %27
  br i1 %28, label %.lr.ph.split.us.split.us, label %.loopexit, !llvm.loop !12

.lr.ph.split.us.split:                            ; preds = %.lr.ph.split.us, %43
  %29 = phi ptr [ %46, %43 ], [ %8, %.lr.ph.split.us ]
  %.01823.us = phi i64 [ %44, %43 ], [ 0, %.lr.ph.split.us ]
  %30 = getelementptr inbounds ptr, ptr %29, i64 %.01823.us
  %31 = load ptr, ptr %30, align 8
  %32 = getelementptr inbounds i8, ptr %31, i64 104
  %33 = tail call noundef zeroext i1 @_ZNK12CVQualifiers14match_indirectERKS_(ptr noundef nonnull align 8 dereferenceable(96) %2, ptr noundef nonnull align 8 dereferenceable(96) %32)
  br i1 %33, label %34, label %43

34:                                               ; preds = %.lr.ph.split.us.split
  %35 = getelementptr inbounds i8, ptr %31, i64 64
  %36 = load ptr, ptr %35, align 8
  %37 = tail call noundef i32 @_ZNK4Type18get_indirect_levelEv(ptr noundef nonnull align 8 dereferenceable(136) %36)
  %38 = tail call noundef i32 @_ZNK4Type18get_indirect_levelEv(ptr noundef nonnull align 8 dereferenceable(136) null)
  %39 = sub nsw i32 %37, %38
  %40 = tail call noundef zeroext i1 @_ZN16VariableSelector15is_eligible_varEPK8VariableiN6Effect6AccessERK9CGContext(ptr noundef %31, i32 noundef %39, i32 noundef %3, ptr noundef nonnull align 8 dereferenceable(216) %4)
  br i1 %40, label %41, label %43

41:                                               ; preds = %34
  %42 = tail call noundef zeroext i1 @_ZNK8Variable11is_volatileEv(ptr noundef nonnull align 8 dereferenceable(200) %31)
  br i1 %42, label %.split.us, label %43

43:                                               ; preds = %41, %34, %.lr.ph.split.us.split
  %44 = add nuw i64 %.01823.us, 1
  %45 = load ptr, ptr %6, align 8
  %46 = load ptr, ptr %0, align 8
  %47 = ptrtoint ptr %45 to i64
  %48 = ptrtoint ptr %46 to i64
  %49 = sub i64 %47, %48
  %50 = ashr exact i64 %49, 3
  %51 = icmp ult i64 %44, %50
  br i1 %51, label %.lr.ph.split.us.split, label %.loopexit, !llvm.loop !12

.lr.ph.split:                                     ; preds = %.lr.ph
  br i1 %.not21, label %.lr.ph.split.split.us, label %.lr.ph.split.split

.lr.ph.split.split.us:                            ; preds = %.lr.ph.split, %66
  %52 = phi ptr [ %69, %66 ], [ %8, %.lr.ph.split ]
  %.01823.us25 = phi i64 [ %67, %66 ], [ 0, %.lr.ph.split ]
  %53 = getelementptr inbounds ptr, ptr %52, i64 %.01823.us25
  %54 = load ptr, ptr %53, align 8
  %55 = getelementptr inbounds i8, ptr %54, i64 64
  %56 = load ptr, ptr %55, align 8
  %57 = tail call noundef zeroext i1 @_ZNK4Type5matchEPKS_10eMatchType(ptr noundef nonnull align 8 dereferenceable(136) %1, ptr noundef %56, i32 noundef 4)
  br i1 %57, label %58, label %66

58:                                               ; preds = %.lr.ph.split.split.us
  %59 = load ptr, ptr %55, align 8
  %60 = tail call noundef i32 @_ZNK4Type18get_indirect_levelEv(ptr noundef nonnull align 8 dereferenceable(136) %59)
  %61 = tail call noundef i32 @_ZNK4Type18get_indirect_levelEv(ptr noundef nonnull align 8 dereferenceable(136) %1)
  %62 = sub nsw i32 %60, %61
  %63 = tail call noundef zeroext i1 @_ZN16VariableSelector15is_eligible_varEPK8VariableiN6Effect6AccessERK9CGContext(ptr noundef nonnull %54, i32 noundef %62, i32 noundef %3, ptr noundef nonnull align 8 dereferenceable(216) %4)
  br i1 %63, label %64, label %66

64:                                               ; preds = %58
  %65 = tail call noundef zeroext i1 @_ZNK8Variable11is_volatileEv(ptr noundef nonnull align 8 dereferenceable(200) %54)
  br i1 %65, label %.split.us, label %66

66:                                               ; preds = %64, %58, %.lr.ph.split.split.us
  %67 = add nuw i64 %.01823.us25, 1
  %68 = load ptr, ptr %6, align 8
  %69 = load ptr, ptr %0, align 8
  %70 = ptrtoint ptr %68 to i64
  %71 = ptrtoint ptr %69 to i64
  %72 = sub i64 %70, %71
  %73 = ashr exact i64 %72, 3
  %74 = icmp ult i64 %67, %73
  br i1 %74, label %.lr.ph.split.split.us, label %.loopexit, !llvm.loop !12

.lr.ph.split.split:                               ; preds = %.lr.ph.split, %94
  %75 = phi ptr [ %97, %94 ], [ %8, %.lr.ph.split ]
  %.01823 = phi i64 [ %95, %94 ], [ 0, %.lr.ph.split ]
  %76 = getelementptr inbounds ptr, ptr %75, i64 %.01823
  %77 = load ptr, ptr %76, align 8
  %78 = getelementptr inbounds i8, ptr %77, i64 64
  %79 = load ptr, ptr %78, align 8
  %80 = tail call noundef zeroext i1 @_ZNK4Type5matchEPKS_10eMatchType(ptr noundef nonnull align 8 dereferenceable(136) %1, ptr noundef %79, i32 noundef 4)
  br i1 %80, label %81, label %94

81:                                               ; preds = %.lr.ph.split.split
  %82 = getelementptr inbounds i8, ptr %77, i64 104
  %83 = tail call noundef zeroext i1 @_ZNK12CVQualifiers14match_indirectERKS_(ptr noundef nonnull align 8 dereferenceable(96) %2, ptr noundef nonnull align 8 dereferenceable(96) %82)
  br i1 %83, label %84, label %94

84:                                               ; preds = %81
  %85 = load ptr, ptr %78, align 8
  %86 = tail call noundef i32 @_ZNK4Type18get_indirect_levelEv(ptr noundef nonnull align 8 dereferenceable(136) %85)
  %87 = tail call noundef i32 @_ZNK4Type18get_indirect_levelEv(ptr noundef nonnull align 8 dereferenceable(136) %1)
  %88 = sub nsw i32 %86, %87
  %89 = tail call noundef zeroext i1 @_ZN16VariableSelector15is_eligible_varEPK8VariableiN6Effect6AccessERK9CGContext(ptr noundef nonnull %77, i32 noundef %88, i32 noundef %3, ptr noundef nonnull align 8 dereferenceable(216) %4)
  br i1 %89, label %90, label %94

90:                                               ; preds = %84
  %91 = tail call noundef zeroext i1 @_ZNK8Variable11is_volatileEv(ptr noundef nonnull align 8 dereferenceable(200) %77)
  br i1 %91, label %.split.us, label %94

.split.us:                                        ; preds = %90, %64, %41, %18
  %92 = load i32, ptr @_ZN10Bookkeeper14volatile_availE, align 4
  %93 = add nsw i32 %92, 1
  store i32 %93, ptr @_ZN10Bookkeeper14volatile_availE, align 4
  br label %.loopexit

94:                                               ; preds = %84, %90, %81, %.lr.ph.split.split
  %95 = add nuw i64 %.01823, 1
  %96 = load ptr, ptr %6, align 8
  %97 = load ptr, ptr %0, align 8
  %98 = ptrtoint ptr %96 to i64
  %99 = ptrtoint ptr %97 to i64
  %100 = sub i64 %98, %99
  %101 = ashr exact i64 %100, 3
  %102 = icmp ult i64 %95, %101
  br i1 %102, label %.lr.ph.split.split, label %.loopexit, !llvm.loop !12

.loopexit:                                        ; preds = %94, %66, %43, %20, %5, %.split.us
  %103 = phi i1 [ true, %.split.us ], [ false, %5 ], [ false, %20 ], [ false, %43 ], [ false, %66 ], [ false, %94 ]
  ret i1 %103
}